target datalayout = "e-m:e-p270:32:32-p271:32:32-p272:64:64-i64:64-i128:128-f80:128-n8:16:32:64-S128"
target triple = "x86_64-pc-linux-gnu"

%struct.mi_heap_s = type { ptr, ptr, i64, i32, i64, [2 x i64], %struct.mi_random_cxt_s, i64, i64, i64, ptr, i8, i8, [129 x ptr], [75 x %struct.mi_page_queue_s] }
%struct.mi_random_cxt_s = type { [16 x i32], [16 x i32], i32, i8 }
%struct.mi_page_queue_s = type { ptr, ptr, i64 }
%struct.mi_tld_s = type { i64, i8, ptr, ptr, %struct.mi_segments_tld_s, %struct.mi_stats_s }
%struct.mi_segments_tld_s = type { %struct.mi_segment_queue_s, %struct.mi_segment_queue_s, %struct.mi_page_queue_s, i64, i64, i64, i64, i64, ptr, ptr }
%struct.mi_segment_queue_s = type { ptr, ptr }
%struct.mi_stats_s = type { %struct.mi_stat_count_s, %struct.mi_stat_count_s, %struct.mi_stat_count_s, %struct.mi_stat_count_s, %struct.mi_stat_count_s, %struct.mi_stat_count_s, %struct.mi_stat_count_s, %struct.mi_stat_count_s, %struct.mi_stat_count_s, %struct.mi_stat_count_s, %struct.mi_stat_count_s, %struct.mi_stat_count_s, %struct.mi_stat_count_s, %struct.mi_stat_count_s, %struct.mi_stat_count_s, %struct.mi_stat_counter_s, %struct.mi_stat_counter_s, %struct.mi_stat_counter_s, %struct.mi_stat_counter_s, %struct.mi_stat_counter_s, %struct.mi_stat_counter_s, %struct.mi_stat_counter_s, %struct.mi_stat_counter_s, %struct.mi_stat_counter_s, %struct.mi_stat_counter_s, %struct.mi_stat_counter_s, %struct.mi_stat_counter_s, %struct.mi_stat_counter_s }
%struct.mi_stat_count_s = type { i64, i64, i64, i64 }
%struct.mi_stat_counter_s = type { i64, i64 }

; Function Attrs: nounwind uwtable
define hidden ptr @_mi_heap_by_tag(ptr noundef %0, i8 noundef zeroext %1) #0 {
  %3 = alloca ptr, align 8
  %4 = alloca ptr, align 8
  %5 = alloca i8, align 1
  %6 = alloca ptr, align 8
  %7 = alloca i32, align 4
  store ptr %0, ptr %4, align 8, !tbaa !3
  store i8 %1, ptr %5, align 1, !tbaa !35
  %8 = load ptr, ptr %4, align 8, !tbaa !3
  %9 = getelementptr inbounds nuw %struct.mi_heap_s, ptr %8, i32 0, i32 12
  %10 = load i8, ptr %9, align 1, !tbaa !37
  %11 = zext i8 %10 to i32
  %12 = load i8, ptr %5, align 1, !tbaa !35
  %13 = zext i8 %12 to i32
  %14 = icmp eq i32 %11, %13
  br i1 %14, label %15, label %17

15:                                               ; preds = %2
  %16 = load ptr, ptr %4, align 8, !tbaa !3
  store ptr %16, ptr %3, align 8
  br label %45

17:                                               ; preds = %2
  call void @llvm.lifetime.start.p0(i64 8, ptr %6) #10
  %18 = load ptr, ptr %4, align 8, !tbaa !3
  %19 = getelementptr inbounds nuw %struct.mi_heap_s, ptr %18, i32 0, i32 0
  %20 = load ptr, ptr %19, align 8, !tbaa !20
  %21 = getelementptr inbounds nuw %struct.mi_tld_s, ptr %20, i32 0, i32 3
  %22 = load ptr, ptr %21, align 8, !tbaa !40
  store ptr %22, ptr %6, align 8, !tbaa !3
  br label %23

23:                                               ; preds = %38, %17
  %24 = load ptr, ptr %6, align 8, !tbaa !3
  %25 = icmp ne ptr %24, null
  br i1 %25, label %27, label %26

26:                                               ; preds = %23
  store i32 2, ptr %7, align 4
  br label %42

27:                                               ; preds = %23
  %28 = load ptr, ptr %6, align 8, !tbaa !3
  %29 = getelementptr inbounds nuw %struct.mi_heap_s, ptr %28, i32 0, i32 12
  %30 = load i8, ptr %29, align 1, !tbaa !37
  %31 = zext i8 %30 to i32
  %32 = load i8, ptr %5, align 1, !tbaa !35
  %33 = zext i8 %32 to i32
  %34 = icmp eq i32 %31, %33
  br i1 %34, label %35, label %37

35:                                               ; preds = %27
  %36 = load ptr, ptr %6, align 8, !tbaa !3
  store ptr %36, ptr %3, align 8
  store i32 1, ptr %7, align 4
  br label %42

37:                                               ; preds = %27
  br label %38

38:                                               ; preds = %37
  %39 = load ptr, ptr %6, align 8, !tbaa !3
  %40 = getelementptr inbounds nuw %struct.mi_heap_s, ptr %39, i32 0, i32 10
  %41 = load ptr, ptr %40, align 8, !tbaa !41
  store ptr %41, ptr %6, align 8, !tbaa !3
  br label %23, !llvm.loop !43

42:                                               ; preds = %35, %26
  call void @llvm.lifetime.end.p0(i64 8, ptr %6) #10
  %43 = load i32, ptr %7, align 4
  switch i32 %43, label %47 [
    i32 2, label %44
    i32 1, label %45
  ]

44:                                               ; preds = %42
  store ptr null, ptr %3, align 8
  br label %45

45:                                               ; preds = %44, %42, %15
  %46 = load ptr, ptr %3, align 8
  ret ptr %46

47:                                               ; preds = %42
  unreachable
}